target datalayout = "e-m:e-p270:32:32-p271:32:32-p272:64:64-i64:64-i128:128-f80:128-n8:16:32:64-S128"
target triple = "x86_64-pc-linux-gnu"

%class.methodHandle = type { ptr, ptr }
%class.Relocator = type { ptr, i32, i32, ptr, i32, %class.methodHandle, [3 x i8], ptr, ptr }
%struct.ByteswapImpl = type { i8 }

; Function Attrs: mustprogress nounwind uwtable
define internal noundef i64 @_ZL14alignment_maskImTnNSt9enable_ifIXcvbsr3std11is_integralIT_EE5valueEiE4typeELi0EES1_S1_(i64 noundef %0) #1 {
  %2 = alloca i64, align 8
  store i64 %0, ptr %2, align 8
  %3 = load i64, ptr %2, align 8
  %4 = sub i64 %3, 1
  ret i64 %4
}

; Function Attrs: mustprogress nounwind uwtable
define linkonce_odr hidden noundef zeroext i1 @_Z10is_alignedImmTnNSt9enable_ifIXcvbsr3std11is_integralIT_EE5valueEiE4typeELi0EEbS1_T0_(i64 noundef %0, i64 noundef %1) #1 comdat {
  %3 = alloca i64, align 8
  %4 = alloca i64, align 8
  store i64 %0, ptr %3, align 8
  store i64 %1, ptr %4, align 8
  %5 = load i64, ptr %3, align 8
  %6 = load i64, ptr %4, align 8
  %7 = call noundef i64 @_ZL14alignment_maskImTnNSt9enable_ifIXcvbsr3std11is_integralIT_EE5valueEiE4typeELi0EES1_S1_(i64 noundef %6)
  %8 = and i64 %5, %7
  %9 = icmp eq i64 %8, 0
  ret i1 %9
}

; Function Attrs: mustprogress nounwind uwtable
define linkonce_odr hidden noundef i32 @_ZNK12ByteswapImplIjLm4EEclEj(ptr noundef nonnull align 1 dereferenceable(1) %0, i32 noundef %1) #1 comdat align 2 {
  %3 = alloca ptr, align 8
  %4 = alloca i32, align 4
  store ptr %0, ptr %3, align 8
  store i32 %1, ptr %4, align 4
  %5 = load i32, ptr %4, align 4
  %6 = call i32 @llvm.bswap.i32(i32 %5)
  ret i32 %6
}

; Function Attrs: mustprogress nounwind uwtable
define linkonce_odr hidden noundef zeroext i1 @_Z10is_alignedIKvmEbPT_T0_(ptr noundef %0, i64 noundef %1) #1 comdat {
  %3 = alloca ptr, align 8
  %4 = alloca i64, align 8
  store ptr %0, ptr %3, align 8
  store i64 %1, ptr %4, align 8
  %5 = load ptr, ptr %3, align 8
  %6 = ptrtoint ptr %5 to i64
  %7 = load i64, ptr %4, align 8
  %8 = call noundef zeroext i1 @_Z10is_alignedImmTnNSt9enable_ifIXcvbsr3std11is_integralIT_EE5valueEiE4typeELi0EEbS1_T0_(i64 noundef %6, i64 noundef %7)
  ret i1 %8
}

; Function Attrs: mustprogress nounwind uwtable
define linkonce_odr hidden noundef i32 @_Z8byteswapIjTnNSt9enable_ifIXcvbsr3std11is_integralIT_EE5valueEiE4typeELi0EES1_S1_(i32 noundef %0) #1 comdat {
  %2 = alloca i32, align 4
  %3 = alloca %struct.ByteswapImpl, align 1
  store i32 %0, ptr %2, align 4
  %4 = load i32, ptr %2, align 4
  %5 = call noundef i32 @_ZNK12ByteswapImplIjLm4EEclEj(ptr noundef nonnull align 1 dereferenceable(1) %3, i32 noundef %4)
  ret i32 %5
}

; Function Attrs: mustprogress nounwind uwtable
define linkonce_odr hidden noundef zeroext i1 @_ZN6Endian31is_Java_byte_ordering_differentEv() #1 comdat align 2 {
  ret i1 true
}

; Function Attrs: mustprogress nounwind uwtable
define linkonce_odr hidden noundef i32 @_ZN5Bytes10get_nativeIjEET_PKv(ptr noundef %0) #1 comdat align 2 {
  %2 = alloca ptr, align 8
  %3 = alloca i32, align 4
  store ptr %0, ptr %2, align 8
  %4 = load ptr, ptr %2, align 8
  %5 = call noundef zeroext i1 @_Z10is_alignedIKvmEbPT_T0_(ptr noundef %4, i64 noundef 4)
  br i1 %5, label %6, label %9

6:                                                ; preds = %1
  %7 = load ptr, ptr %2, align 8
  %8 = load i32, ptr %7, align 4
  store i32 %8, ptr %3, align 4
  br label %11

9:                                                ; preds = %1
  %10 = load ptr, ptr %2, align 8
  call void @llvm.memcpy.p0.p0.i64(ptr align 4 %3, ptr align 1 %10, i64 4, i1 false)
  br label %11

11:                                               ; preds = %9, %6
  %12 = load i32, ptr %3, align 4
  ret i32 %12
}

; Function Attrs: mustprogress nounwind uwtable
define linkonce_odr hidden noundef i32 @_ZN5Bytes8get_JavaIjEET_Ph(ptr noundef %0) #1 comdat align 2 {
  %2 = alloca ptr, align 8
  %3 = alloca i32, align 4
  store ptr %0, ptr %2, align 8
  %4 = load ptr, ptr %2, align 8
  %5 = call noundef i32 @_ZN5Bytes10get_nativeIjEET_PKv(ptr noundef %4)
  store i32 %5, ptr %3, align 4
  %6 = call noundef zeroext i1 @_ZN6Endian31is_Java_byte_ordering_differentEv()
  br i1 %6, label %7, label %10

7:                                                ; preds = %1
  %8 = load i32, ptr %3, align 4
  %9 = call noundef i32 @_Z8byteswapIjTnNSt9enable_ifIXcvbsr3std11is_integralIT_EE5valueEiE4typeELi0EES1_S1_(i32 noundef %8)
  store i32 %9, ptr %3, align 4
  br label %10

10:                                               ; preds = %7, %1
  %11 = load i32, ptr %3, align 4
  ret i32 %11
}

; Function Attrs: mustprogress nounwind uwtable
define linkonce_odr hidden noundef i32 @_ZN5Bytes11get_Java_u4EPh(ptr noundef %0) #1 comdat align 2 {
  %2 = alloca ptr, align 8
  store ptr %0, ptr %2, align 8
  %3 = load ptr, ptr %2, align 8
  %4 = call noundef i32 @_ZN5Bytes8get_JavaIjEET_Ph(ptr noundef %3)
  ret i32 %4
}

; Function Attrs: mustprogress nounwind uwtable
define linkonce_odr hidden noundef ptr @_ZNK9Relocator10code_arrayEv(ptr noundef nonnull align 8 dereferenceable(72) %0) #1 comdat align 2 {
  %2 = alloca ptr, align 8
  store ptr %0, ptr %2, align 8
  %3 = load ptr, ptr %2, align 8
  %4 = getelementptr inbounds %class.Relocator, ptr %3, i32 0, i32 0
  %5 = load ptr, ptr %4, align 8
  ret ptr %5
}

; Function Attrs: mustprogress nounwind uwtable
define linkonce_odr hidden noundef ptr @_ZNK9Relocator7addr_atEi(ptr noundef nonnull align 8 dereferenceable(72) %0, i32 noundef %1) #1 comdat align 2 {
  %3 = alloca ptr, align 8
  %4 = alloca i32, align 4
  store ptr %0, ptr %3, align 8
  store i32 %1, ptr %4, align 4
  %5 = load ptr, ptr %3, align 8
  %6 = call noundef ptr @_ZNK9Relocator10code_arrayEv(ptr noundef nonnull align 8 dereferenceable(72) %5)
  %7 = load i32, ptr %4, align 4
  %8 = sext i32 %7 to i64
  %9 = getelementptr inbounds i8, ptr %6, i64 %8
  ret ptr %9
}

; Function Attrs: mustprogress nounwind uwtable
define linkonce_odr hidden noundef i32 @_ZNK9Relocator6int_atEi(ptr noundef nonnull align 8 dereferenceable(72) %0, i32 noundef %1) #1 comdat align 2 {
  %3 = alloca ptr, align 8
  %4 = alloca i32, align 4
  store ptr %0, ptr %3, align 8
  store i32 %1, ptr %4, align 4
  %5 = load ptr, ptr %3, align 8
  %6 = call noundef ptr @_ZNK9Relocator10code_arrayEv(ptr noundef nonnull align 8 dereferenceable(72) %5)
  %7 = load i32, ptr %4, align 4
  %8 = sext i32 %7 to i64
  %9 = getelementptr inbounds i8, ptr %6, i64 %8
  %10 = call noundef i32 @_ZN5Bytes11get_Java_u4EPh(ptr noundef %9)
  ret i32 %10
}

; Function Attrs: mustprogress nounwind uwtable
define linkonce_odr hidden noundef i32 @_ZNK9Relocator5alignEi(ptr noundef nonnull align 8 dereferenceable(72) %0, i32 noundef %1) #1 comdat align 2 {
  %3 = alloca ptr, align 8
  %4 = alloca i32, align 4
  store ptr %0, ptr %3, align 8
  store i32 %1, ptr %4, align 4
  %5 = load i32, ptr %4, align 4
  %6 = add nsw i32 %5, 3
  %7 = and i32 %6, -4
  ret i32 %7
}

; Function Attrs: mustprogress nounwind uwtable
define hidden noundef zeroext i1 @_ZN9Relocator17handle_switch_padEiib(ptr noundef nonnull align 8 dereferenceable(72) %0, i32 noundef %1, i32 noundef %2, i1 noundef zeroext %3) #1 align 2 {
  %5 = alloca i1, align 1
  %6 = alloca ptr, align 8
  %7 = alloca i32, align 4
  %8 = alloca i32, align 4
  %9 = alloca i8, align 1
  %10 = alloca i32, align 4
  %11 = alloca i32, align 4
  %12 = alloca i32, align 4
  %13 = alloca i32, align 4
  %14 = alloca i32, align 4
  %15 = alloca i32, align 4
  %16 = alloca i32, align 4
  store ptr %0, ptr %6, align 8
  store i32 %1, ptr %7, align 4
  store i32 %2, ptr %8, align 4
  %17 = zext i1 %3 to i8
  store i8 %17, ptr %9, align 1
  %18 = load ptr, ptr %6, align 8
  %19 = load i32, ptr %7, align 4
  %20 = call noundef i32 @_ZN9Relocator12rc_instr_lenEi(ptr noundef nonnull align 8 dereferenceable(72) %18, i32 noundef %19)
  store i32 %20, ptr %10, align 4
  %21 = load i32, ptr %7, align 4
  %22 = add nsw i32 %21, 1
  %23 = call noundef i32 @_ZNK9Relocator5alignEi(ptr noundef nonnull align 8 dereferenceable(72) %18, i32 noundef %22)
  %24 = load i32, ptr %7, align 4
  %25 = add nsw i32 %24, 1
  %26 = sub nsw i32 %23, %25
  store i32 %26, ptr %11, align 4
  %27 = load i32, ptr %11, align 4
  %28 = load i32, ptr %8, align 4
  %29 = sub nsw i32 %27, %28
  store i32 %29, ptr %12, align 4
  %30 = load i32, ptr %12, align 4
  %31 = icmp ne i32 %30, 0
  br i1 %31, label %32, label %123

32:                                               ; preds = %4
  %33 = load i8, ptr %9, align 1
  %34 = trunc i8 %33 to i1
  br i1 %34, label %53, label %35

35:                                               ; preds = %32
  %36 = load i32, ptr %7, align 4
  %37 = add nsw i32 %36, 1
  %38 = load i32, ptr %8, align 4
  %39 = add nsw i32 %37, %38
  %40 = add nsw i32 %39, 4
  %41 = call noundef i32 @_ZNK9Relocator6int_atEi(ptr noundef nonnull align 8 dereferenceable(72) %18, i32 noundef %40)
  store i32 %41, ptr %14, align 4
  %42 = load i32, ptr %7, align 4
  %43 = add nsw i32 %42, 1
  %44 = load i32, ptr %8, align 4
  %45 = add nsw i32 %43, %44
  %46 = add nsw i32 %45, 8
  %47 = call noundef i32 @_ZNK9Relocator6int_atEi(ptr noundef nonnull align 8 dereferenceable(72) %18, i32 noundef %46)
  store i32 %47, ptr %15, align 4
  %48 = load i32, ptr %15, align 4
  %49 = load i32, ptr %14, align 4
  %50 = sub nsw i32 %48, %49
  %51 = add nsw i32 %50, 1
  %52 = add nsw i32 %51, 3
  store i32 %52, ptr %13, align 4
  br label %63

53:                                               ; preds = %32
  %54 = load i32, ptr %7, align 4
  %55 = add nsw i32 %54, 1
  %56 = load i32, ptr %8, align 4
  %57 = add nsw i32 %55, %56
  %58 = add nsw i32 %57, 4
  %59 = call noundef i32 @_ZNK9Relocator6int_atEi(ptr noundef nonnull align 8 dereferenceable(72) %18, i32 noundef %58)
  store i32 %59, ptr %16, align 4
  %60 = load i32, ptr %16, align 4
  %61 = mul nsw i32 %60, 2
  %62 = add nsw i32 %61, 2
  store i32 %62, ptr %13, align 4
  br label %63

63:                                               ; preds = %53, %35
  %64 = load i32, ptr %7, align 4
  %65 = load i32, ptr %10, align 4
  %66 = load i32, ptr %12, align 4
  %67 = call noundef zeroext i1 @_ZN9Relocator13relocate_codeEiii(ptr noundef nonnull align 8 dereferenceable(72) %18, i32 noundef %64, i32 noundef %65, i32 noundef %66)
  br i1 %67, label %69, label %68

68:                                               ; preds = %63
  store i1 false, ptr %5, align 1
  br label %124

69:                                               ; preds = %63
  %70 = load i32, ptr %12, align 4
  %71 = icmp slt i32 %70, 0
  br i1 %71, label %72, label %103

72:                                               ; preds = %69
  %73 = load i32, ptr %7, align 4
  %74 = add nsw i32 %73, 1
  %75 = load i32, ptr %11, align 4
  %76 = add nsw i32 %74, %75
  %77 = call noundef ptr @_ZNK9Relocator7addr_atEi(ptr noundef nonnull align 8 dereferenceable(72) %18, i32 noundef %76)
  %78 = load i32, ptr %7, align 4
  %79 = add nsw i32 %78, 1
  %80 = load i32, ptr %8, align 4
  %81 = add nsw i32 %79, %80
  %82 = call noundef ptr @_ZNK9Relocator7addr_atEi(ptr noundef nonnull align 8 dereferenceable(72) %18, i32 noundef %81)
  %83 = load i32, ptr %13, align 4
  %84 = mul nsw i32 %83, 4
  %85 = load i32, ptr %12, align 4
  %86 = add nsw i32 %84, %85
  %87 = sext i32 %86 to i64
  call void @llvm.memmove.p0.p0.i64(ptr align 1 %77, ptr align 1 %82, i64 %87, i1 false)
  %88 = load i32, ptr %7, align 4
  %89 = add nsw i32 %88, 1
  %90 = load i32, ptr %11, align 4
  %91 = add nsw i32 %89, %90
  %92 = load i32, ptr %13, align 4
  %93 = mul nsw i32 %92, 4
  %94 = add nsw i32 %91, %93
  %95 = load i32, ptr %12, align 4
  %96 = add nsw i32 %94, %95
  %97 = call noundef ptr @_ZNK9Relocator7addr_atEi(ptr noundef nonnull align 8 dereferenceable(72) %18, i32 noundef %96)
  %98 = getelementptr inbounds %class.Relocator, ptr %18, i32 0, i32 6
  %99 = getelementptr inbounds [3 x i8], ptr %98, i64 0, i64 0
  %100 = load i32, ptr %12, align 4
  %101 = sub nsw i32 0, %100
  %102 = sext i32 %101 to i64
  call void @llvm.memmove.p0.p0.i64(ptr align 1 %97, ptr align 8 %99, i64 %102, i1 false)
  br label %122

103:                                              ; preds = %69
  %104 = load i32, ptr %7, align 4
  %105 = add nsw i32 %104, 1
  %106 = load i32, ptr %11, align 4
  %107 = add nsw i32 %105, %106
  %108 = call noundef ptr @_ZNK9Relocator7addr_atEi(ptr noundef nonnull align 8 dereferenceable(72) %18, i32 noundef %107)
  %109 = load i32, ptr %7, align 4
  %110 = add nsw i32 %109, 1
  %111 = load i32, ptr %8, align 4
  %112 = add nsw i32 %110, %111
  %113 = call noundef ptr @_ZNK9Relocator7addr_atEi(ptr noundef nonnull align 8 dereferenceable(72) %18, i32 noundef %112)
  %114 = load i32, ptr %13, align 4
  %115 = mul nsw i32 %114, 4
  %116 = sext i32 %115 to i64
  call void @llvm.memmove.p0.p0.i64(ptr align 1 %108, ptr align 1 %113, i64 %116, i1 false)
  %117 = load i32, ptr %7, align 4
  %118 = add nsw i32 %117, 1
  %119 = call noundef ptr @_ZNK9Relocator7addr_atEi(ptr noundef nonnull align 8 dereferenceable(72) %18, i32 noundef %118)
  %120 = load i32, ptr %11, align 4
  %121 = sext i32 %120 to i64
  call void @llvm.memset.p0.i64(ptr align 1 %119, i8 0, i64 %121, i1 false)
  br label %122

122:                                              ; preds = %103, %72
  br label %123

123:                                              ; preds = %122, %4
  store i1 true, ptr %5, align 1
  br label %124

124:                                              ; preds = %123, %68
  %125 = load i1, ptr %5, align 1
  ret i1 %125
}