; Function Attrs: mustprogress nounwind uwtable
define hidden noundef zeroext i1 @_ZN9Relocator17handle_switch_padEiib(ptr noundef nonnull align 8 dereferenceable(72) %0, i32 noundef %1, i32 noundef %2, i1 noundef zeroext %3) local_unnamed_addr #0 align 2 {
  %5 = tail call noundef i32 @_ZN9Relocator12rc_instr_lenEi(ptr noundef nonnull align 8 dereferenceable(72) %0, i32 noundef %1)
  %6 = add nsw i32 %1, 1
  %7 = and i32 %1, -4
  %8 = add nsw i32 %7, 4
  %9 = sub nsw i32 %8, %6
  %10 = sub nsw i32 %9, %2
  %.not = icmp eq i32 %9, %2
  br i1 %.not, label %53, label %11

11:                                               ; preds = %4
  %12 = add nsw i32 %6, %2
  %13 = load ptr, ptr %0, align 8
  %14 = sext i32 %12 to i64
  %15 = getelementptr i8, ptr %13, i64 %14
  %16 = getelementptr i8, ptr %15, i64 4
  %.0.i.i.i.i42 = load i32, ptr %16, align 1
  %17 = tail call noundef i32 @llvm.bswap.i32(i32 %.0.i.i.i.i42)
  br i1 %3, label %22, label %18

18:                                               ; preds = %11
  %19 = getelementptr i8, ptr %15, i64 8
  %.0.i.i.i.i41 = load i32, ptr %19, align 1
  %20 = tail call noundef i32 @llvm.bswap.i32(i32 %.0.i.i.i.i41)
  %reass.sub = sub i32 %20, %17
  %21 = add i32 %reass.sub, 4
  br label %25

22:                                               ; preds = %11
  %23 = shl nsw i32 %17, 1
  %24 = add nsw i32 %23, 2
  br label %25

25:                                               ; preds = %22, %18
  %.039 = phi i32 [ %24, %22 ], [ %21, %18 ]
  %26 = tail call noundef zeroext i1 @_ZN9Relocator13relocate_codeEiii(ptr noundef nonnull align 8 dereferenceable(72) %0, i32 noundef %1, i32 noundef %5, i32 noundef %10)
  br i1 %26, label %27, label %53

27:                                               ; preds = %25
  %28 = icmp slt i32 %10, 0
  %29 = load ptr, ptr %0, align 8
  %30 = sext i32 %8 to i64
  %31 = getelementptr inbounds i8, ptr %29, i64 %30
  %32 = add nsw i32 %6, %2
  %33 = sext i32 %32 to i64
  %34 = getelementptr inbounds i8, ptr %29, i64 %33
  %35 = shl nsw i32 %.039, 2
  br i1 %28, label %36, label %47

36:                                               ; preds = %27
  %37 = add nsw i32 %35, %10
  %38 = sext i32 %37 to i64
  tail call void @llvm.memmove.p0.p0.i64(ptr align 1 %31, ptr align 1 %34, i64 %38, i1 false)
  %39 = add i32 %10, %8
  %40 = add i32 %39, %35
  %41 = load ptr, ptr %0, align 8
  %42 = sext i32 %40 to i64
  %43 = getelementptr inbounds i8, ptr %41, i64 %42
  %44 = getelementptr inbounds i8, ptr %0, i64 48
  %45 = sub nsw i32 0, %10
  %46 = zext nneg i32 %45 to i64
  tail call void @llvm.memmove.p0.p0.i64(ptr align 1 %43, ptr nonnull align 8 %44, i64 %46, i1 false)
  br label %53

47:                                               ; preds = %27
  %48 = sext i32 %35 to i64
  tail call void @llvm.memmove.p0.p0.i64(ptr align 1 %31, ptr align 1 %34, i64 %48, i1 false)
  %49 = load ptr, ptr %0, align 8
  %50 = sext i32 %6 to i64
  %51 = getelementptr inbounds i8, ptr %49, i64 %50
  %52 = sext i32 %9 to i64
  tail call void @llvm.memset.p0.i64(ptr align 1 %51, i8 0, i64 %52, i1 false)
  br label %53

53:                                               ; preds = %4, %47, %36, %25
  %.0 = phi i1 [ false, %25 ], [ true, %36 ], [ true, %47 ], [ true, %4 ]
  ret i1 %.0
}